; ModuleID = 'source-C-CXX/62/1162.c'
source_filename = "source-C-CXX/62/1162.c"
target datalayout = "e-m:e-p270:32:32-p271:32:32-p272:64:64-i64:64-f80:128-n8:16:32:64-S128"
target triple = "x86_64-pc-linux-gnu"

@.str = private unnamed_addr constant [6 x i8] c"%d %d\00", align 1
@.str.1 = private unnamed_addr constant [3 x i8] c"%d\00", align 1

; Function Attrs: nofree nounwind sspstrong uwtable
define dso_local void @main() local_unnamed_addr #0 {
  %1 = alloca i32, align 4
  %2 = alloca i32, align 4
  %3 = alloca i32, align 4
  %4 = alloca i32, align 4
  %5 = alloca [100 x [100 x i32]], align 16
  %6 = alloca [100 x [100 x i32]], align 16
  %7 = bitcast i32* %1 to i8*
  call void @llvm.lifetime.start.p0i8(i64 4, i8* nonnull %7) #4
  %8 = bitcast i32* %2 to i8*
  call void @llvm.lifetime.start.p0i8(i64 4, i8* nonnull %8) #4
  %9 = bitcast i32* %3 to i8*
  call void @llvm.lifetime.start.p0i8(i64 4, i8* nonnull %9) #4
  %10 = bitcast i32* %4 to i8*
  call void @llvm.lifetime.start.p0i8(i64 4, i8* nonnull %10) #4
  %11 = bitcast [100 x [100 x i32]]* %5 to i8*
  call void @llvm.lifetime.start.p0i8(i64 40000, i8* nonnull %11) #4
  %12 = bitcast [100 x [100 x i32]]* %6 to i8*
  call void @llvm.lifetime.start.p0i8(i64 40000, i8* nonnull %12) #4
  %13 = call i32 (i8*, ...) @__isoc99_scanf(i8* getelementptr inbounds ([6 x i8], [6 x i8]* @.str, i64 0, i64 0), i32* nonnull %1, i32* nonnull %2)
  %14 = load i32, i32* %1, align 4, !tbaa !5
  %15 = icmp sgt i32 %14, 0
  %16 = load i32, i32* %2, align 4
  %17 = icmp sgt i32 %16, 0
  %18 = select i1 %15, i1 %17, i1 false
  br i1 %18, label %19, label %40

19:                                               ; preds = %0, %34
  %20 = phi i32 [ %35, %34 ], [ %14, %0 ]
  %21 = phi i32 [ %36, %34 ], [ %16, %0 ]
  %22 = phi i64 [ %37, %34 ], [ 0, %0 ]
  %23 = icmp sgt i32 %21, 0
  br i1 %23, label %24, label %34

24:                                               ; preds = %19, %24
  %25 = phi i64 [ %28, %24 ], [ 0, %19 ]
  %26 = getelementptr inbounds [100 x [100 x i32]], [100 x [100 x i32]]* %5, i64 0, i64 %22, i64 %25
  %27 = call i32 (i8*, ...) @__isoc99_scanf(i8* getelementptr inbounds ([3 x i8], [3 x i8]* @.str.1, i64 0, i64 0), i32* nonnull %26)
  %28 = add nuw nsw i64 %25, 1
  %29 = load i32, i32* %2, align 4, !tbaa !5
  %30 = sext i32 %29 to i64
  %31 = icmp slt i64 %28, %30
  br i1 %31, label %24, label %32, !llvm.loop !9

32:                                               ; preds = %24
  %33 = load i32, i32* %1, align 4, !tbaa !5
  br label %34

34:                                               ; preds = %32, %19
  %35 = phi i32 [ %33, %32 ], [ %20, %19 ]
  %36 = phi i32 [ %29, %32 ], [ %21, %19 ]
  %37 = add nuw nsw i64 %22, 1
  %38 = sext i32 %35 to i64
  %39 = icmp slt i64 %37, %38
  br i1 %39, label %19, label %40, !llvm.loop !11

40:                                               ; preds = %34, %0
  %41 = call i32 (i8*, ...) @__isoc99_scanf(i8* getelementptr inbounds ([6 x i8], [6 x i8]* @.str, i64 0, i64 0), i32* nonnull %3, i32* nonnull %4)
  %42 = load i32, i32* %3, align 4, !tbaa !5
  %43 = icmp sgt i32 %42, 0
  %44 = load i32, i32* %4, align 4
  %45 = icmp sgt i32 %44, 0
  %46 = select i1 %43, i1 %45, i1 false
  br i1 %46, label %47, label %52

47:                                               ; preds = %40, %68
  %48 = phi i32 [ %69, %68 ], [ %42, %40 ]
  %49 = phi i32 [ %70, %68 ], [ %44, %40 ]
  %50 = phi i64 [ %71, %68 ], [ 0, %40 ]
  %51 = icmp sgt i32 %49, 0
  br i1 %51, label %58, label %68

52:                                               ; preds = %68, %40
  %53 = load i32, i32* %1, align 4, !tbaa !5
  %54 = icmp sgt i32 %53, 0
  %55 = load i32, i32* %4, align 4
  %56 = icmp sgt i32 %55, 0
  %57 = select i1 %54, i1 %56, i1 false
  br i1 %57, label %74, label %123

58:                                               ; preds = %47, %58
  %59 = phi i64 [ %62, %58 ], [ 0, %47 ]
  %60 = getelementptr inbounds [100 x [100 x i32]], [100 x [100 x i32]]* %6, i64 0, i64 %50, i64 %59
  %61 = call i32 (i8*, ...) @__isoc99_scanf(i8* getelementptr inbounds ([3 x i8], [3 x i8]* @.str.1, i64 0, i64 0), i32* nonnull %60)
  %62 = add nuw nsw i64 %59, 1
  %63 = load i32, i32* %4, align 4, !tbaa !5
  %64 = sext i32 %63 to i64
  %65 = icmp slt i64 %62, %64
  br i1 %65, label %58, label %66, !llvm.loop !13

66:                                               ; preds = %58
  %67 = load i32, i32* %3, align 4, !tbaa !5
  br label %68

68:                                               ; preds = %66, %47
  %69 = phi i32 [ %67, %66 ], [ %48, %47 ]
  %70 = phi i32 [ %63, %66 ], [ %49, %47 ]
  %71 = add nuw nsw i64 %50, 1
  %72 = sext i32 %69 to i64
  %73 = icmp slt i64 %71, %72
  br i1 %73, label %47, label %52, !llvm.loop !14

74:                                               ; preds = %52, %117
  %75 = phi i32 [ %118, %117 ], [ %53, %52 ]
  %76 = phi i32 [ %119, %117 ], [ %55, %52 ]
  %77 = phi i64 [ %120, %117 ], [ 0, %52 ]
  %78 = icmp sgt i32 %76, 0
  br i1 %78, label %79, label %117

79:                                               ; preds = %74, %102
  %80 = phi i64 [ %111, %102 ], [ 0, %74 ]
  %81 = load i32, i32* %2, align 4, !tbaa !5
  %82 = load i32, i32* %3, align 4
  %83 = icmp sgt i32 %81, 0
  %84 = icmp sgt i32 %82, 0
  %85 = select i1 %83, i1 %84, i1 false
  br i1 %85, label %86, label %102

86:                                               ; preds = %79
  %87 = zext i32 %82 to i64
  %88 = zext i32 %81 to i64
  br label %89

89:                                               ; preds = %86, %89
  %90 = phi i64 [ 0, %86 ], [ %98, %89 ]
  %91 = phi i32 [ 0, %86 ], [ %97, %89 ]
  %92 = getelementptr inbounds [100 x [100 x i32]], [100 x [100 x i32]]* %5, i64 0, i64 %77, i64 %90
  %93 = load i32, i32* %92, align 4, !tbaa !5
  %94 = getelementptr inbounds [100 x [100 x i32]], [100 x [100 x i32]]* %6, i64 0, i64 %90, i64 %80
  %95 = load i32, i32* %94, align 4, !tbaa !5
  %96 = mul nsw i32 %95, %93
  %97 = add nsw i32 %96, %91
  %98 = add nuw nsw i64 %90, 1
  %99 = icmp ult i64 %98, %88
  %100 = icmp ult i64 %98, %87
  %101 = select i1 %99, i1 %100, i1 false
  br i1 %101, label %89, label %102, !llvm.loop !15

102:                                              ; preds = %89, %79
  %103 = phi i32 [ 0, %79 ], [ %97, %89 ]
  %104 = call i32 (i8*, ...) @printf(i8* nonnull dereferenceable(1) getelementptr inbounds ([3 x i8], [3 x i8]* @.str.1, i64 0, i64 0), i32 %103)
  %105 = load i32, i32* %4, align 4, !tbaa !5
  %106 = add nsw i32 %105, -1
  %107 = zext i32 %106 to i64
  %108 = icmp eq i64 %80, %107
  %109 = select i1 %108, i32 10, i32 32
  %110 = call i32 @putchar(i32 %109)
  %111 = add nuw nsw i64 %80, 1
  %112 = load i32, i32* %4, align 4, !tbaa !5
  %113 = sext i32 %112 to i64
  %114 = icmp slt i64 %111, %113
  br i1 %114, label %79, label %115, !llvm.loop !16

115:                                              ; preds = %102
  %116 = load i32, i32* %1, align 4, !tbaa !5
  br label %117

117:                                              ; preds = %115, %74
  %118 = phi i32 [ %116, %115 ], [ %75, %74 ]
  %119 = phi i32 [ %112, %115 ], [ %76, %74 ]
  %120 = add nuw nsw i64 %77, 1
  %121 = sext i32 %118 to i64
  %122 = icmp slt i64 %120, %121
  br i1 %122, label %74, label %123, !llvm.loop !17

123:                                              ; preds = %117, %52
  call void @llvm.lifetime.end.p0i8(i64 40000, i8* nonnull %12) #4
  call void @llvm.lifetime.end.p0i8(i64 40000, i8* nonnull %11) #4
  call void @llvm.lifetime.end.p0i8(i64 4, i8* nonnull %10) #4
  call void @llvm.lifetime.end.p0i8(i64 4, i8* nonnull %9) #4
  call void @llvm.lifetime.end.p0i8(i64 4, i8* nonnull %8) #4
  call void @llvm.lifetime.end.p0i8(i64 4, i8* nonnull %7) #4
  ret void
}

; Function Attrs: argmemonly mustprogress nofree nosync nounwind willreturn
declare void @llvm.lifetime.start.p0i8(i64 immarg, i8* nocapture) #1

; Function Attrs: nofree nounwind
declare noundef i32 @__isoc99_scanf(i8* nocapture noundef readonly, ...) local_unnamed_addr #2

; Function Attrs: nofree nounwind
declare noundef i32 @printf(i8* nocapture noundef readonly, ...) local_unnamed_addr #2

; Function Attrs: argmemonly mustprogress nofree nosync nounwind willreturn
declare void @llvm.lifetime.end.p0i8(i64 immarg, i8* nocapture) #1

; Function Attrs: nofree nounwind
declare noundef i32 @putchar(i32 noundef) local_unnamed_addr #3


!llvm.module.flags = !{!0, !1, !2, !3}
!llvm.ident = !{!4}

!0 = !{i32 1, !"wchar_size", i32 4}
!1 = !{i32 7, !"PIC Level", i32 2}
!2 = !{i32 7, !"PIE Level", i32 2}
!3 = !{i32 7, !"uwtable", i32 1}
!4 = !{!"clang version 13.0.0"}
!5 = !{!6, !6, i64 0}
!6 = !{!"int", !7, i64 0}
!7 = !{!"omnipotent char", !8, i64 0}
!8 = !{!"Simple C/C++ TBAA"}
!9 = distinct !{!9, !10}
!10 = !{!"llvm.loop.mustprogress"}
!11 = distinct !{!11, !10, !12}
!12 = !{!"llvm.loop.unswitch.partial.disable"}
!13 = distinct !{!13, !10}
!14 = distinct !{!14, !10, !12}
!15 = distinct !{!15, !10}
!16 = distinct !{!16, !10}
!17 = distinct !{!17, !10, !12}
